; ModuleID = 'source-C-CXX/12/1961.c'
source_filename = "source-C-CXX/12/1961.c"
target datalayout = "e-m:e-p270:32:32-p271:32:32-p272:64:64-i64:64-f80:128-n8:16:32:64-S128"
target triple = "x86_64-pc-linux-gnu"

@.str = private unnamed_addr constant [4 x i8] c"%d\0A\00", align 1
@.str.1 = private unnamed_addr constant [3 x i8] c"%d\00", align 1
@.str.2 = private unnamed_addr constant [4 x i8] c" %d\00", align 1

; Function Attrs: nofree nounwind sspstrong uwtable
define dso_local i32 @main() local_unnamed_addr #0 {
  %1 = alloca i32, align 4
  %2 = alloca [30000 x i32], align 16
  %3 = bitcast i32* %1 to i8*
  call void @llvm.lifetime.start.p0i8(i64 4, i8* nonnull %3) #3
  %4 = bitcast [30000 x i32]* %2 to i8*
  call void @llvm.lifetime.start.p0i8(i64 120000, i8* nonnull %4) #3
  %5 = call i32 (i8*, ...) @__isoc99_scanf(i8* getelementptr inbounds ([4 x i8], [4 x i8]* @.str, i64 0, i64 0), i32* nonnull %1)
  %6 = getelementptr inbounds [30000 x i32], [30000 x i32]* %2, i64 0, i64 0
  %7 = call i32 (i8*, ...) @__isoc99_scanf(i8* getelementptr inbounds ([3 x i8], [3 x i8]* @.str.1, i64 0, i64 0), i32* nonnull %6)
  %8 = load i32, i32* %6, align 16, !tbaa !5
  %9 = call i32 (i8*, ...) @printf(i8* nonnull dereferenceable(1) getelementptr inbounds ([3 x i8], [3 x i8]* @.str.1, i64 0, i64 0), i32 %8)
  %10 = load i32, i32* %1, align 4, !tbaa !5
  %11 = icmp sgt i32 %10, 1
  br i1 %11, label %14, label %49

12:                                               ; preds = %14
  %13 = icmp sgt i32 %19, 1
  br i1 %13, label %22, label %49

14:                                               ; preds = %0, %14
  %15 = phi i64 [ %18, %14 ], [ 1, %0 ]
  %16 = getelementptr inbounds [30000 x i32], [30000 x i32]* %2, i64 0, i64 %15
  %17 = call i32 (i8*, ...) @__isoc99_scanf(i8* getelementptr inbounds ([3 x i8], [3 x i8]* @.str.1, i64 0, i64 0), i32* nonnull %16)
  %18 = add nuw nsw i64 %15, 1
  %19 = load i32, i32* %1, align 4, !tbaa !5
  %20 = sext i32 %19 to i64
  %21 = icmp slt i64 %18, %20
  br i1 %21, label %14, label %12, !llvm.loop !9

22:                                               ; preds = %12, %43
  %23 = phi i32 [ %44, %43 ], [ %19, %12 ]
  %24 = phi i64 [ %45, %43 ], [ 1, %12 ]
  %25 = phi i64 [ %48, %43 ], [ 2, %12 ]
  %26 = getelementptr inbounds [30000 x i32], [30000 x i32]* %2, i64 0, i64 %24
  %27 = load i32, i32* %26, align 4, !tbaa !5
  br label %28

28:                                               ; preds = %22, %33
  %29 = phi i64 [ 0, %22 ], [ %34, %33 ]
  %30 = getelementptr inbounds [30000 x i32], [30000 x i32]* %2, i64 0, i64 %29
  %31 = load i32, i32* %30, align 4, !tbaa !5
  %32 = icmp eq i32 %27, %31
  br i1 %32, label %36, label %33

33:                                               ; preds = %28
  %34 = add nuw nsw i64 %29, 1
  %35 = icmp eq i64 %34, %25
  br i1 %35, label %36, label %28, !llvm.loop !11

36:                                               ; preds = %28, %33
  %37 = phi i64 [ %29, %28 ], [ %25, %33 ]
  %38 = and i64 %37, 4294967295
  %39 = icmp eq i64 %38, %24
  br i1 %39, label %40, label %43

40:                                               ; preds = %36
  %41 = call i32 (i8*, ...) @printf(i8* nonnull dereferenceable(1) getelementptr inbounds ([4 x i8], [4 x i8]* @.str.2, i64 0, i64 0), i32 %27)
  %42 = load i32, i32* %1, align 4, !tbaa !5
  br label %43

43:                                               ; preds = %36, %40
  %44 = phi i32 [ %23, %36 ], [ %42, %40 ]
  %45 = add nuw nsw i64 %24, 1
  %46 = sext i32 %44 to i64
  %47 = icmp slt i64 %45, %46
  %48 = add nuw nsw i64 %25, 1
  br i1 %47, label %22, label %49, !llvm.loop !12

49:                                               ; preds = %43, %0, %12
  call void @llvm.lifetime.end.p0i8(i64 120000, i8* nonnull %4) #3
  call void @llvm.lifetime.end.p0i8(i64 4, i8* nonnull %3) #3
  ret i32 0
}

; Function Attrs: argmemonly mustprogress nofree nosync nounwind willreturn
declare void @llvm.lifetime.start.p0i8(i64 immarg, i8* nocapture) #1

; Function Attrs: nofree nounwind
declare noundef i32 @__isoc99_scanf(i8* nocapture noundef readonly, ...) local_unnamed_addr #2

; Function Attrs: nofree nounwind
declare noundef i32 @printf(i8* nocapture noundef readonly, ...) local_unnamed_addr #2

; Function Attrs: argmemonly mustprogress nofree nosync nounwind willreturn
declare void @llvm.lifetime.end.p0i8(i64 immarg, i8* nocapture) #1


!llvm.module.flags = !{!0, !1, !2, !3}
!llvm.ident = !{!4}

!0 = !{i32 1, !"wchar_size", i32 4}
!1 = !{i32 7, !"PIC Level", i32 2}
!2 = !{i32 7, !"PIE Level", i32 2}
!3 = !{i32 7, !"uwtable", i32 1}
!4 = !{!"clang version 13.0.0"}
!5 = !{!6, !6, i64 0}
!6 = !{!"int", !7, i64 0}
!7 = !{!"omnipotent char", !8, i64 0}
!8 = !{!"Simple C/C++ TBAA"}
!9 = distinct !{!9, !10}
!10 = !{!"llvm.loop.mustprogress"}
!11 = distinct !{!11, !10}
!12 = distinct !{!12, !10}
